; Function Attrs: mustprogress nofree norecurse nosync nounwind willreturn memory(argmem: read) uwtable
define dso_local noundef zeroext i1 @_ZNK4Type9is_signedEv(ptr nocapture noundef nonnull readonly align 8 dereferenceable(136) %0) local_unnamed_addr #7 align 2 {
  %2 = load i32, ptr %0, align 8
  %cond = icmp eq i32 %2, 0
  br i1 %cond, label %3, label %8

3:                                                ; preds = %1
  %4 = getelementptr inbounds i8, ptr %0, i64 16
  %5 = load i32, ptr %4, align 8
  %6 = icmp ult i32 %5, 14
  br i1 %6, label %switch.lookup, label %8

switch.lookup:                                    ; preds = %3
  %switch.cast = trunc i32 %5 to i14
  %switch.downshift = lshr i14 5183, %switch.cast
  %7 = and i14 %switch.downshift, 1
  %switch.masked = icmp ne i14 %7, 0
  br label %8

8:                                                ; preds = %3, %switch.lookup, %1
  %.0 = phi i1 [ false, %1 ], [ %switch.masked, %switch.lookup ], [ true, %3 ]
  ret i1 %.0
}